; Function Attrs: nounwind sspstrong uwtable
define dso_local noundef zeroext i1 @visit_type_XDbgBlockGraphNode(ptr noundef %v, ptr noundef %name, ptr noundef %obj, ptr noundef %errp) local_unnamed_addr #0 {
entry:
  %value.i.i = alloca i32, align 4
  %call = tail call zeroext i1 @visit_start_struct(ptr noundef %v, ptr noundef %name, ptr noundef %obj, i64 noundef 24, ptr noundef %errp) #5
  br i1 %call, label %if.end, label %return

if.end:                                           ; preds = %entry
  %0 = load ptr, ptr %obj, align 8
  %tobool.not = icmp eq ptr %0, null
  br i1 %tobool.not, label %if.then1, label %if.end5

if.then1:                                         ; preds = %if.end
  %call2 = tail call zeroext i1 @visit_is_dealloc(ptr noundef %v) #5
  br i1 %call2, label %out_obj.thread17, label %if.else

out_obj.thread17:                                 ; preds = %if.then1
  tail call void @visit_end_struct(ptr noundef %v, ptr noundef nonnull %obj) #5
  br label %return

if.else:                                          ; preds = %if.then1
  tail call void @__assert_fail(ptr noundef nonnull @.str.8, ptr noundef nonnull @.str.9, i32 noundef 3033, ptr noundef nonnull @__PRETTY_FUNCTION__.visit_type_XDbgBlockGraphNode) #6
  unreachable

if.end5:                                          ; preds = %if.end
  %call.i = tail call zeroext i1 @visit_type_uint64(ptr noundef %v, ptr noundef nonnull @.str, ptr noundef nonnull %0, ptr noundef %errp) #5
  br i1 %call.i, label %if.end.i, label %out_obj.thread

if.end.i:                                         ; preds = %if.end5
  %type.i = getelementptr inbounds nuw i8, ptr %0, i64 8
  call void @llvm.lifetime.start.p0(i64 4, ptr nonnull %value.i.i)
  %1 = load i32, ptr %type.i, align 4
  store i32 %1, ptr %value.i.i, align 4
  %call.i.i = call zeroext i1 @visit_type_enum(ptr noundef %v, ptr noundef nonnull @.str.32, ptr noundef nonnull %value.i.i, ptr noundef nonnull @XDbgBlockGraphNodeType_lookup, ptr noundef %errp) #5
  %2 = load i32, ptr %value.i.i, align 4
  store i32 %2, ptr %type.i, align 4
  call void @llvm.lifetime.end.p0(i64 4, ptr nonnull %value.i.i)
  br i1 %call.i.i, label %visit_type_XDbgBlockGraphNode_members.exit, label %out_obj.thread

visit_type_XDbgBlockGraphNode_members.exit:       ; preds = %if.end.i
  %name.i = getelementptr inbounds nuw i8, ptr %0, i64 16
  %call4.i = call zeroext i1 @visit_type_str(ptr noundef %v, ptr noundef nonnull @.str.1, ptr noundef nonnull %name.i, ptr noundef %errp) #5
  br i1 %call4.i, label %out_obj, label %out_obj.thread

out_obj.thread:                                   ; preds = %visit_type_XDbgBlockGraphNode_members.exit, %if.end5, %if.end.i
  call void @visit_end_struct(ptr noundef %v, ptr noundef nonnull %obj) #5
  br label %land.lhs.true

out_obj:                                          ; preds = %visit_type_XDbgBlockGraphNode_members.exit
  %call9 = call zeroext i1 @visit_check_struct(ptr noundef %v, ptr noundef %errp) #5
  call void @visit_end_struct(ptr noundef %v, ptr noundef nonnull %obj) #5
  br i1 %call9, label %return, label %land.lhs.true

land.lhs.true:                                    ; preds = %out_obj.thread, %out_obj
  %call11 = call zeroext i1 @visit_is_input(ptr noundef %v) #5
  br i1 %call11, label %if.then12, label %return

if.then12:                                        ; preds = %land.lhs.true
  %3 = load ptr, ptr %obj, align 8
  call void @qapi_free_XDbgBlockGraphNode(ptr noundef %3) #5
  store ptr null, ptr %obj, align 8
  br label %return

return:                                           ; preds = %out_obj.thread17, %out_obj, %land.lhs.true, %if.then12, %entry
  %retval.0 = phi i1 [ false, %entry ], [ false, %if.then12 ], [ false, %land.lhs.true ], [ true, %out_obj ], [ true, %out_obj.thread17 ]
  ret i1 %retval.0
}